; Function Attrs: null_pointer_is_valid sspstrong uwtable
define i32 @tvb_find_uint8(ptr noundef %0, i32 noundef %1, i32 noundef %2, i8 noundef zeroext %3) local_unnamed_addr #0 {
  %.not = icmp eq ptr %0, null
  br i1 %.not, label %9, label %5

5:                                                ; preds = %4
  %6 = getelementptr inbounds nuw i8, ptr %0, i64 16
  %7 = load i8, ptr %6, align 8, !range !9, !noundef !10
  %8 = trunc nuw i8 %7 to i1
  br i1 %8, label %10, label %9

9:                                                ; preds = %5, %4
  tail call void (ptr, ...) @proto_report_dissector_bug(ptr noundef nonnull @.str, ptr noundef nonnull @.str.1, i32 noundef 2460, ptr noundef nonnull @.str.5) #18
  unreachable

10:                                               ; preds = %5
  %11 = icmp sgt i32 %1, -1
  br i1 %11, label %12, label %25

12:                                               ; preds = %10
  %13 = getelementptr inbounds nuw i8, ptr %0, i64 40
  %14 = load i32, ptr %13, align 8
  %.not32.i.i = icmp ugt i32 %1, %14
  br i1 %.not32.i.i, label %15, label %42, !prof !11

15:                                               ; preds = %12
  %16 = getelementptr inbounds nuw i8, ptr %0, i64 48
  %17 = load i32, ptr %16, align 8
  %.not34.i.i = icmp ugt i32 %1, %17
  br i1 %.not34.i.i, label %18, label %41

18:                                               ; preds = %15
  %19 = getelementptr inbounds nuw i8, ptr %0, i64 20
  %20 = load i32, ptr %19, align 4
  %21 = and i32 %20, 1
  %.not35.i.i = icmp eq i32 %21, 0
  br i1 %.not35.i.i, label %22, label %41

22:                                               ; preds = %18
  %23 = getelementptr inbounds nuw i8, ptr %0, i64 44
  %24 = load i32, ptr %23, align 4
  %.not36.i.i = icmp ugt i32 %1, %24
  br label %.sink.split

25:                                               ; preds = %10
  %26 = sub i32 0, %1
  %27 = getelementptr inbounds nuw i8, ptr %0, i64 40
  %28 = load i32, ptr %27, align 8
  %.not.i.i = icmp ult i32 %28, %26
  br i1 %.not.i.i, label %31, label %29, !prof !11

29:                                               ; preds = %25
  %30 = add i32 %28, %1
  br label %42

31:                                               ; preds = %25
  %32 = getelementptr inbounds nuw i8, ptr %0, i64 48
  %33 = load i32, ptr %32, align 8
  %.not29.i.i = icmp ult i32 %33, %26
  br i1 %.not29.i.i, label %34, label %41

34:                                               ; preds = %31
  %35 = getelementptr inbounds nuw i8, ptr %0, i64 20
  %36 = load i32, ptr %35, align 4
  %37 = and i32 %36, 1
  %.not30.i.i = icmp eq i32 %37, 0
  br i1 %.not30.i.i, label %38, label %41

38:                                               ; preds = %34
  %39 = getelementptr inbounds nuw i8, ptr %0, i64 44
  %40 = load i32, ptr %39, align 4
  %.not31.i.i = icmp ult i32 %40, %26
  br label %.sink.split

.sink.split:                                      ; preds = %22, %38
  %.not31.i.i.sink = phi i1 [ %.not31.i.i, %38 ], [ %.not36.i.i, %22 ]
  %.37.i.i = select i1 %.not31.i.i.sink, i64 3, i64 2
  br label %41

41:                                               ; preds = %.sink.split, %34, %31, %18, %15
  %.0.i9.i.ph = phi i64 [ 1, %15 ], [ 4, %18 ], [ 1, %31 ], [ 4, %34 ], [ %.37.i.i, %.sink.split ]
  tail call void @except_throw(i64 noundef 1, i64 noundef %.0.i9.i.ph, ptr noundef null) #18
  unreachable

42:                                               ; preds = %29, %12
  %43 = phi i32 [ %28, %29 ], [ %14, %12 ]
  %storemerge.i.i = phi i32 [ %30, %29 ], [ %1, %12 ]
  %44 = sub i32 %43, %storemerge.i.i
  %45 = tail call i32 @llvm.umin.i32(i32 %44, i32 %2)
  %46 = icmp slt i32 %2, 0
  %spec.select = select i1 %46, i32 %44, i32 %45
  %47 = getelementptr inbounds nuw i8, ptr %0, i64 32
  %48 = load ptr, ptr %47, align 8
  %.not29 = icmp eq ptr %48, null
  br i1 %.not29, label %61, label %49

49:                                               ; preds = %42
  %50 = zext i32 %storemerge.i.i to i64
  %51 = getelementptr i8, ptr %48, i64 %50
  %52 = zext i8 %3 to i32
  %53 = zext i32 %spec.select to i64
  %54 = tail call ptr @memchr(ptr noundef %51, i32 noundef %52, i64 noundef %53) #22
  %55 = icmp eq ptr %54, null
  br i1 %55, label %tvb_find_uint8_generic.exit, label %56

56:                                               ; preds = %49
  %57 = ptrtoint ptr %54 to i64
  %58 = ptrtoint ptr %48 to i64
  %59 = sub i64 %57, %58
  %60 = trunc i64 %59 to i32
  br label %tvb_find_uint8_generic.exit

61:                                               ; preds = %42
  %62 = getelementptr inbounds nuw i8, ptr %0, i64 8
  %63 = load ptr, ptr %62, align 8
  %64 = getelementptr inbounds nuw i8, ptr %63, i64 40
  %65 = load ptr, ptr %64, align 8
  %.not30 = icmp eq ptr %65, null
  br i1 %.not30, label %68, label %66

66:                                               ; preds = %61
  %67 = tail call i32 %65(ptr noundef nonnull %0, i32 noundef %storemerge.i.i, i32 noundef %spec.select, i8 noundef zeroext %3)
  br label %tvb_find_uint8_generic.exit

68:                                               ; preds = %61
  %69 = tail call fastcc ptr @ensure_contiguous(ptr noundef nonnull %0, i32 noundef %1, i32 noundef %spec.select)
  %.not.i = icmp eq ptr %69, null
  br i1 %.not.i, label %tvb_find_uint8_generic.exit, label %70

70:                                               ; preds = %68
  %71 = zext i8 %3 to i32
  %72 = zext i32 %spec.select to i64
  %73 = tail call ptr @memchr(ptr noundef nonnull %69, i32 noundef %71, i64 noundef %72) #22
  %.not13.i = icmp eq ptr %73, null
  br i1 %.not13.i, label %tvb_find_uint8_generic.exit, label %74

74:                                               ; preds = %70
  %75 = ptrtoint ptr %73 to i64
  %76 = ptrtoint ptr %69 to i64
  %77 = sub i64 %75, %76
  %78 = trunc i64 %77 to i32
  %79 = add i32 %1, %78
  br label %tvb_find_uint8_generic.exit

tvb_find_uint8_generic.exit:                      ; preds = %74, %70, %68, %49, %66, %56
  %.0 = phi i32 [ %60, %56 ], [ %67, %66 ], [ -1, %49 ], [ %79, %74 ], [ -1, %68 ], [ -1, %70 ]
  ret i32 %.0
}